target datalayout = "e-m:e-p270:32:32-p271:32:32-p272:64:64-i64:64-i128:128-f80:128-n8:16:32:64-S128"
target triple = "x86_64-pc-linux-gnu"

%"class.std::__cxx11::basic_string" = type { %"struct.std::__cxx11::basic_string<char>::_Alloc_hider", i64, %union.anon }
%"struct.std::__cxx11::basic_string<char>::_Alloc_hider" = type { ptr }
%union.anon = type { i64, [8 x i8] }
%"class.cvc5::internal::theory::Valuation" = type { ptr }
%"class.cvc5::internal::theory::Theory" = type { %"class.cvc5::internal::EnvObj", %"class.std::__cxx11::basic_string", %"class.cvc5::internal::TimerStat", %"class.cvc5::internal::TimerStat", ptr, %"class.cvc5::internal::theory::Valuation", ptr, %"class.std::unique_ptr", ptr, ptr, ptr, ptr, i32, [4 x i8], %"class.cvc5::context::CDList", %"class.cvc5::context::CDO", ptr, ptr }
%"class.cvc5::internal::EnvObj" = type { ptr, ptr }
%"class.cvc5::internal::TimerStat" = type { ptr }
%"class.std::unique_ptr" = type { %"struct.std::__uniq_ptr_data" }
%"struct.std::__uniq_ptr_data" = type { %"class.std::__uniq_ptr_impl" }
%"class.std::__uniq_ptr_impl" = type { %"class.std::tuple" }
%"class.std::tuple" = type { %"struct.std::_Tuple_impl" }
%"struct.std::_Tuple_impl" = type { %"struct.std::_Head_base.1" }
%"struct.std::_Head_base.1" = type { ptr }
%"class.cvc5::context::CDList" = type <{ %"class.cvc5::context::ContextObj", %"class.std::vector", i64, i8, [7 x i8] }>
%"class.cvc5::context::ContextObj" = type { ptr, ptr, ptr, ptr, ptr }
%"class.std::vector" = type { %"struct.std::_Vector_base" }
%"struct.std::_Vector_base" = type { %"struct.std::_Vector_base<cvc5::internal::theory::Assertion, std::allocator<cvc5::internal::theory::Assertion>>::_Vector_impl" }
%"struct.std::_Vector_base<cvc5::internal::theory::Assertion, std::allocator<cvc5::internal::theory::Assertion>>::_Vector_impl" = type { %"struct.std::_Vector_base<cvc5::internal::theory::Assertion, std::allocator<cvc5::internal::theory::Assertion>>::_Vector_impl_data" }
%"struct.std::_Vector_base<cvc5::internal::theory::Assertion, std::allocator<cvc5::internal::theory::Assertion>>::_Vector_impl_data" = type { ptr, ptr, ptr }
%"class.cvc5::context::CDO" = type <{ %"class.cvc5::context::ContextObj", i32, [4 x i8] }>

; Function Attrs: mustprogress uwtable
define hidden void @_ZN4cvc58internal6theory3sep9TheorySep10finishInitEv(ptr noundef nonnull align 8 dereferenceable(1824) %0) unnamed_addr #4 align 2 {
  %2 = alloca ptr, align 8
  store ptr %0, ptr %2, align 8, !tbaa !3
  %3 = load ptr, ptr %2, align 8
  %4 = getelementptr inbounds nuw %"class.cvc5::internal::theory::Theory", ptr %3, i32 0, i32 6
  %5 = load ptr, ptr %4, align 8, !tbaa !437
  call void @_ZN4cvc58internal6theory2eq14EqualityEngine15addFunctionKindENS0_4kind6Kind_tEbb(ptr noundef nonnull align 8 dereferenceable(1784) %5, i32 noundef 248, i1 noundef zeroext false, i1 noundef zeroext false)
  %6 = getelementptr inbounds nuw %"class.cvc5::internal::theory::Theory", ptr %3, i32 0, i32 5
  call void @_ZN4cvc58internal6theory9Valuation17setIrrelevantKindENS0_4kind6Kind_tE(ptr noundef nonnull align 8 dereferenceable(8) %6, i32 noundef 249)
  %7 = getelementptr inbounds nuw %"class.cvc5::internal::theory::Theory", ptr %3, i32 0, i32 5
  call void @_ZN4cvc58internal6theory9Valuation17setIrrelevantKindENS0_4kind6Kind_tE(ptr noundef nonnull align 8 dereferenceable(8) %7, i32 noundef 250)
  %8 = getelementptr inbounds nuw %"class.cvc5::internal::theory::Theory", ptr %3, i32 0, i32 5
  call void @_ZN4cvc58internal6theory9Valuation17setIrrelevantKindENS0_4kind6Kind_tE(ptr noundef nonnull align 8 dereferenceable(8) %8, i32 noundef 251)
  %9 = getelementptr inbounds nuw %"class.cvc5::internal::theory::Theory", ptr %3, i32 0, i32 5
  call void @_ZN4cvc58internal6theory9Valuation17setIrrelevantKindENS0_4kind6Kind_tE(ptr noundef nonnull align 8 dereferenceable(8) %9, i32 noundef 248)
  ret void
}