; Function Attrs: mustprogress uwtable
define hidden void @_ZN4cvc58internal6theory3sep9TheorySep10finishInitEv(ptr noundef nonnull align 8 dereferenceable(1824) %0) unnamed_addr #3 align 2 {
  %2 = getelementptr inbounds nuw i8, ptr %0, i64 80
  %3 = load ptr, ptr %2, align 8, !tbaa !392
  tail call void @_ZN4cvc58internal6theory2eq14EqualityEngine15addFunctionKindENS0_4kind6Kind_tEbb(ptr noundef nonnull align 8 dereferenceable(1784) %3, i32 noundef 248, i1 noundef zeroext false, i1 noundef zeroext false)
  %4 = getelementptr inbounds nuw i8, ptr %0, i64 72
  tail call void @_ZN4cvc58internal6theory9Valuation17setIrrelevantKindENS0_4kind6Kind_tE(ptr noundef nonnull align 8 dereferenceable(8) %4, i32 noundef 249)
  tail call void @_ZN4cvc58internal6theory9Valuation17setIrrelevantKindENS0_4kind6Kind_tE(ptr noundef nonnull align 8 dereferenceable(8) %4, i32 noundef 250)
  tail call void @_ZN4cvc58internal6theory9Valuation17setIrrelevantKindENS0_4kind6Kind_tE(ptr noundef nonnull align 8 dereferenceable(8) %4, i32 noundef 251)
  tail call void @_ZN4cvc58internal6theory9Valuation17setIrrelevantKindENS0_4kind6Kind_tE(ptr noundef nonnull align 8 dereferenceable(8) %4, i32 noundef 248)
  ret void
}